; ModuleID = 'source-C-CXX/57/709.c'
source_filename = "source-C-CXX/57/709.c"
target datalayout = "e-m:e-p270:32:32-p271:32:32-p272:64:64-i64:64-f80:128-n8:16:32:64-S128"
target triple = "x86_64-pc-linux-gnu"

%struct._IO_FILE = type { i32, i8*, i8*, i8*, i8*, i8*, i8*, i8*, i8*, i8*, i8*, i8*, %struct._IO_marker*, %struct._IO_FILE*, i32, i32, i64, i16, i8, [1 x i8], i8*, i64, %struct._IO_codecvt*, %struct._IO_wide_data*, %struct._IO_FILE*, i8*, i64, i32, [20 x i8] }
%struct._IO_marker = type opaque
%struct._IO_codecvt = type opaque
%struct._IO_wide_data = type opaque

@.str = private unnamed_addr constant [3 x i8] c"%d\00", align 1
@.str.1 = private unnamed_addr constant [4 x i8] c"%d\0A\00", align 1
@stdin = external local_unnamed_addr global %struct._IO_FILE*, align 8

; Function Attrs: nounwind sspstrong uwtable
define dso_local i32 @main() local_unnamed_addr #0 {
  %1 = alloca [81 x i8], align 16
  %2 = alloca i32, align 4
  %3 = getelementptr inbounds [81 x i8], [81 x i8]* %1, i64 0, i64 0
  call void @llvm.lifetime.start.p0i8(i64 81, i8* nonnull %3) #5
  %4 = bitcast i32* %2 to i8*
  call void @llvm.lifetime.start.p0i8(i64 4, i8* nonnull %4) #5
  %5 = call i32 (i8*, ...) @__isoc99_scanf(i8* getelementptr inbounds ([3 x i8], [3 x i8]* @.str, i64 0, i64 0), i32* nonnull %2)
  %6 = load %struct._IO_FILE*, %struct._IO_FILE** @stdin, align 8, !tbaa !5
  %7 = call i32 @getc(%struct._IO_FILE* %6) #5
  %8 = load i32, i32* %2, align 4, !tbaa !9
  %9 = icmp sgt i32 %8, 0
  br i1 %9, label %10, label %59

10:                                               ; preds = %0, %51
  %11 = phi i32 [ %56, %51 ], [ 0, %0 ]
  %12 = call i32 (i8*, ...) bitcast (i32 (...)* @gets to i32 (i8*, ...)*)(i8* nonnull %3) #5
  %13 = call i64 @strlen(i8* noundef nonnull %3) #6
  %14 = trunc i64 %13 to i32
  %15 = load i8, i8* %3, align 16, !tbaa !11
  %16 = icmp eq i8 %15, 95
  %17 = add i8 %15, -65
  %18 = icmp ult i8 %17, 26
  %19 = or i1 %16, %18
  br i1 %19, label %23, label %20

20:                                               ; preds = %10
  %21 = add i8 %15, -97
  %22 = icmp ult i8 %21, 26
  br label %23

23:                                               ; preds = %20, %10
  %24 = phi i1 [ true, %10 ], [ %22, %20 ]
  %25 = icmp sgt i32 %14, 0
  br i1 %25, label %26, label %51

26:                                               ; preds = %23
  %27 = and i64 %13, 4294967295
  %28 = icmp eq i8 %15, 95
  %29 = and i8 %15, -33
  %30 = add i8 %29, -65
  %31 = icmp ult i8 %30, 26
  %32 = or i1 %31, %28
  %33 = add i8 %15, -48
  %34 = icmp ult i8 %33, 10
  %35 = or i1 %32, %34
  br i1 %35, label %36, label %51

36:                                               ; preds = %26, %39
  %37 = phi i64 [ %50, %39 ], [ 1, %26 ]
  %38 = icmp eq i64 %37, %27
  br i1 %38, label %51, label %39, !llvm.loop !12

39:                                               ; preds = %36
  %40 = getelementptr inbounds [81 x i8], [81 x i8]* %1, i64 0, i64 %37
  %41 = load i8, i8* %40, align 1, !tbaa !11
  %42 = icmp eq i8 %41, 95
  %43 = and i8 %41, -33
  %44 = add i8 %43, -65
  %45 = icmp ult i8 %44, 26
  %46 = or i1 %45, %42
  %47 = add i8 %41, -48
  %48 = icmp ult i8 %47, 10
  %49 = or i1 %46, %48
  %50 = add nuw nsw i64 %37, 1
  br i1 %49, label %36, label %51

51:                                               ; preds = %39, %36, %26, %23
  %52 = phi i1 [ false, %23 ], [ false, %26 ], [ %38, %36 ], [ %38, %39 ]
  %53 = and i1 %24, %52
  %54 = zext i1 %53 to i32
  %55 = call i32 (i8*, ...) @printf(i8* nonnull dereferenceable(1) getelementptr inbounds ([4 x i8], [4 x i8]* @.str.1, i64 0, i64 0), i32 %54)
  %56 = add nuw nsw i32 %11, 1
  %57 = load i32, i32* %2, align 4, !tbaa !9
  %58 = icmp slt i32 %56, %57
  br i1 %58, label %10, label %59, !llvm.loop !14

59:                                               ; preds = %51, %0
  call void @llvm.lifetime.end.p0i8(i64 4, i8* nonnull %4) #5
  call void @llvm.lifetime.end.p0i8(i64 81, i8* nonnull %3) #5
  ret i32 0
}

; Function Attrs: argmemonly mustprogress nofree nosync nounwind willreturn
declare void @llvm.lifetime.start.p0i8(i64 immarg, i8* nocapture) #1

; Function Attrs: nofree nounwind
declare noundef i32 @__isoc99_scanf(i8* nocapture noundef readonly, ...) local_unnamed_addr #2

declare i32 @gets(...) local_unnamed_addr #3

; Function Attrs: argmemonly mustprogress nofree nounwind readonly willreturn
declare i64 @strlen(i8* nocapture) local_unnamed_addr #4

; Function Attrs: nofree nounwind
declare noundef i32 @printf(i8* nocapture noundef readonly, ...) local_unnamed_addr #2

; Function Attrs: argmemonly mustprogress nofree nosync nounwind willreturn
declare void @llvm.lifetime.end.p0i8(i64 immarg, i8* nocapture) #1

; Function Attrs: nofree nounwind
declare noundef i32 @getc(%struct._IO_FILE* nocapture noundef) local_unnamed_addr #2


!llvm.module.flags = !{!0, !1, !2, !3}
!llvm.ident = !{!4}

!0 = !{i32 1, !"wchar_size", i32 4}
!1 = !{i32 7, !"PIC Level", i32 2}
!2 = !{i32 7, !"PIE Level", i32 2}
!3 = !{i32 7, !"uwtable", i32 1}
!4 = !{!"clang version 13.0.0"}
!5 = !{!6, !6, i64 0}
!6 = !{!"any pointer", !7, i64 0}
!7 = !{!"omnipotent char", !8, i64 0}
!8 = !{!"Simple C/C++ TBAA"}
!9 = !{!10, !10, i64 0}
!10 = !{!"int", !7, i64 0}
!11 = !{!7, !7, i64 0}
!12 = distinct !{!12, !13}
!13 = !{!"llvm.loop.mustprogress"}
!14 = distinct !{!14, !13}
